; Function Attrs: mustprogress nofree norecurse nosync nounwind willreturn memory(argmem: readwrite) uwtable
define dso_local void @_Z27btNearestPointInLineSegmentRK9btVector3S1_S1_RS_(ptr noundef nonnull readonly align 4 captures(none) dereferenceable(16) %0, ptr noundef nonnull readonly align 4 captures(none) dereferenceable(16) %1, ptr noundef nonnull readonly align 4 captures(none) dereferenceable(16) %2, ptr noundef nonnull writeonly align 4 captures(none) dereferenceable(16) initializes((0, 16)) %3) local_unnamed_addr #4 {
  %5 = load float, ptr %2, align 4, !tbaa !32
  %6 = load float, ptr %1, align 4, !tbaa !32
  %7 = fsub float %5, %6
  %8 = getelementptr inbounds nuw i8, ptr %2, i64 4
  %9 = load float, ptr %8, align 4, !tbaa !32
  %10 = getelementptr inbounds nuw i8, ptr %1, i64 4
  %11 = load float, ptr %10, align 4, !tbaa !32
  %12 = fsub float %9, %11
  %13 = getelementptr inbounds nuw i8, ptr %2, i64 8
  %14 = load float, ptr %13, align 4, !tbaa !32
  %15 = getelementptr inbounds nuw i8, ptr %1, i64 8
  %16 = load float, ptr %15, align 4, !tbaa !32
  %17 = fsub float %14, %16
  %18 = fmul float %12, %12
  %19 = tail call float @llvm.fmuladd.f32(float %7, float %7, float %18)
  %20 = tail call noundef float @llvm.fmuladd.f32(float %17, float %17, float %19)
  %21 = fcmp olt float %20, 0x3D10000000000000
  br i1 %21, label %22, label %23

22:                                               ; preds = %4
  tail call void @llvm.memcpy.p0.p0.i64(ptr noundef nonnull align 4 dereferenceable(16) %3, ptr noundef nonnull align 4 dereferenceable(16) %1, i64 16, i1 false), !tbaa.struct !53
  br label %47

23:                                               ; preds = %4
  %24 = load float, ptr %0, align 4, !tbaa !32
  %25 = fsub float %24, %6
  %26 = getelementptr inbounds nuw i8, ptr %0, i64 4
  %27 = load float, ptr %26, align 4, !tbaa !32
  %28 = fsub float %27, %11
  %29 = getelementptr inbounds nuw i8, ptr %0, i64 8
  %30 = load float, ptr %29, align 4, !tbaa !32
  %31 = fsub float %30, %16
  %32 = fmul float %12, %28
  %33 = tail call float @llvm.fmuladd.f32(float %25, float %7, float %32)
  %34 = tail call noundef float @llvm.fmuladd.f32(float %31, float %17, float %33)
  %35 = fdiv float %34, %20
  %36 = fcmp olt float %35, 0.000000e+00
  br i1 %36, label %40, label %37

37:                                               ; preds = %23
  %38 = fcmp ogt float %35, 1.000000e+00
  br i1 %38, label %39, label %40

39:                                               ; preds = %37
  br label %40

40:                                               ; preds = %23, %37, %39
  %.0 = phi float [ 1.000000e+00, %39 ], [ %35, %37 ], [ 0.000000e+00, %23 ]
  %41 = fmul float %7, %.0
  %42 = fmul float %12, %.0
  %43 = fmul float %17, %.0
  %44 = fadd float %6, %41
  %45 = fadd float %11, %42
  %46 = fadd float %16, %43
  %.sroa.0.0.vec.insert.i18 = insertelement <2 x float> poison, float %44, i64 0
  %.sroa.0.4.vec.insert.i19 = insertelement <2 x float> %.sroa.0.0.vec.insert.i18, float %45, i64 1
  %.sroa.3.12.vec.insert.i20 = insertelement <2 x float> <float poison, float 0.000000e+00>, float %46, i64 0
  store <2 x float> %.sroa.0.4.vec.insert.i19, ptr %3, align 4
  %.sroa.4.0..sroa_idx = getelementptr inbounds nuw i8, ptr %3, i64 8
  store <2 x float> %.sroa.3.12.vec.insert.i20, ptr %.sroa.4.0..sroa_idx, align 4, !tbaa !29
  br label %47

47:                                               ; preds = %40, %22
  ret void
}